target datalayout = "e-m:e-p270:32:32-p271:32:32-p272:64:64-i64:64-i128:128-f80:128-n8:16:32:64-S128"
target triple = "x86_64-pc-linux-gnu"

%struct.dlist_node = type { ptr, ptr }
%struct.ForEachState = type { ptr, i32 }
%struct.CachedPlanSource = type { i32, ptr, ptr, i32, ptr, i32, ptr, ptr, i32, i8, ptr, ptr, ptr, ptr, ptr, ptr, ptr, i32, i8, i8, ptr, i8, i8, i8, i8, i32, %struct.dlist_node, double, double, i64, i64 }
%struct.List = type { i32, i32, i32, ptr, [0 x %union.ListCell] }
%union.ListCell = type { ptr }
%struct.Query = type { i32, i32, i32, i64, i8, ptr, i32, i8, i8, i8, i8, i8, i8, i8, i8, i8, i8, i8, ptr, ptr, ptr, ptr, ptr, i32, ptr, ptr, i32, ptr, ptr, ptr, ptr, ptr, i8, ptr, ptr, ptr, ptr, ptr, ptr, ptr, i32, ptr, ptr, ptr, ptr, i32, i32 }

@CurrentMemoryContext = external global ptr, align 8
@.str.1 = private unnamed_addr constant [16 x i8] c"CachedPlanQuery\00", align 1
@row_security = external global i8, align 1

; Function Attrs: nounwind uwtable
define internal ptr @QueryListGetPrimaryStmt(ptr noundef %0) #0 {
  %2 = alloca ptr, align 8
  %3 = alloca ptr, align 8
  %4 = alloca ptr, align 8
  %5 = alloca %struct.ForEachState, align 8
  %6 = alloca i32, align 4
  %7 = alloca ptr, align 8
  store ptr %0, ptr %3, align 8
  call void @llvm.lifetime.start.p0(i64 8, ptr %4) #8
  call void @llvm.lifetime.start.p0(i64 16, ptr %5) #8
  %8 = getelementptr inbounds nuw %struct.ForEachState, ptr %5, i32 0, i32 0
  %9 = load ptr, ptr %3, align 8
  store ptr %9, ptr %8, align 8
  %10 = getelementptr inbounds nuw %struct.ForEachState, ptr %5, i32 0, i32 1
  store i32 0, ptr %10, align 8
  %11 = getelementptr i8, ptr %5, i64 12
  call void @llvm.memset.p0.i64(ptr align 4 %11, i8 0, i64 4, i1 false)
  br label %12

12:                                               ; preds = %51, %1
  %13 = getelementptr inbounds nuw %struct.ForEachState, ptr %5, i32 0, i32 0
  %14 = load ptr, ptr %13, align 8
  %15 = icmp ne ptr %14, null
  br i1 %15, label %16, label %33

16:                                               ; preds = %12
  %17 = getelementptr inbounds nuw %struct.ForEachState, ptr %5, i32 0, i32 1
  %18 = load i32, ptr %17, align 8
  %19 = getelementptr inbounds nuw %struct.ForEachState, ptr %5, i32 0, i32 0
  %20 = load ptr, ptr %19, align 8
  %21 = getelementptr inbounds nuw %struct.List, ptr %20, i32 0, i32 1
  %22 = load i32, ptr %21, align 4
  %23 = icmp slt i32 %18, %22
  br i1 %23, label %24, label %33

24:                                               ; preds = %16
  %25 = getelementptr inbounds nuw %struct.ForEachState, ptr %5, i32 0, i32 0
  %26 = load ptr, ptr %25, align 8
  %27 = getelementptr inbounds nuw %struct.List, ptr %26, i32 0, i32 3
  %28 = load ptr, ptr %27, align 8
  %29 = getelementptr inbounds nuw %struct.ForEachState, ptr %5, i32 0, i32 1
  %30 = load i32, ptr %29, align 8
  %31 = sext i32 %30 to i64
  %32 = getelementptr inbounds %union.ListCell, ptr %28, i64 %31
  store ptr %32, ptr %4, align 8
  br label %34

33:                                               ; preds = %16, %12
  store ptr null, ptr %4, align 8
  br label %34

34:                                               ; preds = %33, %24
  %35 = phi i32 [ 1, %24 ], [ 0, %33 ]
  %36 = icmp ne i32 %35, 0
  br i1 %36, label %38, label %37

37:                                               ; preds = %34
  store i32 2, ptr %6, align 4
  br label %55

38:                                               ; preds = %34
  call void @llvm.lifetime.start.p0(i64 8, ptr %7) #8
  %39 = load ptr, ptr %4, align 8
  %40 = load ptr, ptr %39, align 8
  store ptr %40, ptr %7, align 8
  %41 = load ptr, ptr %7, align 8
  %42 = getelementptr inbounds nuw %struct.Query, ptr %41, i32 0, i32 4
  %43 = load i8, ptr %42, align 8, !range !4, !noundef !5
  %44 = trunc i8 %43 to i1
  br i1 %44, label %45, label %47

45:                                               ; preds = %38
  %46 = load ptr, ptr %7, align 8
  store ptr %46, ptr %2, align 8
  store i32 1, ptr %6, align 4
  br label %48

47:                                               ; preds = %38
  store i32 0, ptr %6, align 4
  br label %48

48:                                               ; preds = %47, %45
  call void @llvm.lifetime.end.p0(i64 8, ptr %7) #8
  %49 = load i32, ptr %6, align 4
  switch i32 %49, label %55 [
    i32 0, label %50
  ]

50:                                               ; preds = %48
  br label %51

51:                                               ; preds = %50
  %52 = getelementptr inbounds nuw %struct.ForEachState, ptr %5, i32 0, i32 1
  %53 = load i32, ptr %52, align 8
  %54 = add i32 %53, 1
  store i32 %54, ptr %52, align 8
  br label %12, !llvm.loop !21

55:                                               ; preds = %48, %37
  call void @llvm.lifetime.end.p0(i64 16, ptr %5) #8
  %56 = load i32, ptr %6, align 4
  switch i32 %56, label %58 [
    i32 2, label %57
  ]

57:                                               ; preds = %55
  store ptr null, ptr %2, align 8
  store i32 1, ptr %6, align 4
  br label %58

58:                                               ; preds = %57, %55
  call void @llvm.lifetime.end.p0(i64 8, ptr %4) #8
  %59 = load ptr, ptr %2, align 8
  ret ptr %59
}

; Function Attrs: inlinehint nounwind uwtable
define internal ptr @list_nth_cell(ptr noundef %0, i32 noundef %1) #3 {
  %3 = alloca ptr, align 8
  %4 = alloca i32, align 4
  store ptr %0, ptr %3, align 8
  store i32 %1, ptr %4, align 4
  %5 = load ptr, ptr %3, align 8
  %6 = getelementptr inbounds nuw %struct.List, ptr %5, i32 0, i32 3
  %7 = load ptr, ptr %6, align 8
  %8 = load i32, ptr %4, align 4
  %9 = sext i32 %8 to i64
  %10 = getelementptr inbounds %union.ListCell, ptr %7, i64 %9
  ret ptr %10
}

; Function Attrs: nounwind uwtable
define internal ptr @PlanCacheComputeResultDesc(ptr noundef %0) #0 {
  %2 = alloca ptr, align 8
  %3 = alloca ptr, align 8
  %4 = alloca ptr, align 8
  %5 = alloca i32, align 4
  store ptr %0, ptr %3, align 8
  call void @llvm.lifetime.start.p0(i64 8, ptr %4) #8
  %6 = load ptr, ptr %3, align 8
  %7 = call i32 @ChoosePortalStrategy(ptr noundef %6)
  switch i32 %7, label %31 [
    i32 0, label %8
    i32 2, label %8
    i32 1, label %16
    i32 3, label %23
    i32 4, label %31
  ]

8:                                                ; preds = %1, %1
  %9 = load ptr, ptr %3, align 8
  %10 = call ptr @list_nth_cell(ptr noundef %9, i32 noundef 0)
  %11 = load ptr, ptr %10, align 8
  store ptr %11, ptr %4, align 8
  %12 = load ptr, ptr %4, align 8
  %13 = getelementptr inbounds nuw %struct.Query, ptr %12, i32 0, i32 25
  %14 = load ptr, ptr %13, align 8
  %15 = call ptr @ExecCleanTypeFromTL(ptr noundef %14)
  store ptr %15, ptr %2, align 8
  store i32 1, ptr %5, align 4
  br label %32

16:                                               ; preds = %1
  %17 = load ptr, ptr %3, align 8
  %18 = call ptr @QueryListGetPrimaryStmt(ptr noundef %17)
  store ptr %18, ptr %4, align 8
  %19 = load ptr, ptr %4, align 8
  %20 = getelementptr inbounds nuw %struct.Query, ptr %19, i32 0, i32 30
  %21 = load ptr, ptr %20, align 8
  %22 = call ptr @ExecCleanTypeFromTL(ptr noundef %21)
  store ptr %22, ptr %2, align 8
  store i32 1, ptr %5, align 4
  br label %32

23:                                               ; preds = %1
  %24 = load ptr, ptr %3, align 8
  %25 = call ptr @list_nth_cell(ptr noundef %24, i32 noundef 0)
  %26 = load ptr, ptr %25, align 8
  store ptr %26, ptr %4, align 8
  %27 = load ptr, ptr %4, align 8
  %28 = getelementptr inbounds nuw %struct.Query, ptr %27, i32 0, i32 5
  %29 = load ptr, ptr %28, align 8
  %30 = call ptr @UtilityTupleDescriptor(ptr noundef %29)
  store ptr %30, ptr %2, align 8
  store i32 1, ptr %5, align 4
  br label %32

31:                                               ; preds = %1, %1
  store ptr null, ptr %2, align 8
  store i32 1, ptr %5, align 4
  br label %32

32:                                               ; preds = %31, %23, %16, %8
  call void @llvm.lifetime.end.p0(i64 8, ptr %4) #8
  %33 = load ptr, ptr %2, align 8
  ret ptr %33
}

; Function Attrs: inlinehint nounwind uwtable
define internal ptr @MemoryContextSwitchTo(ptr noundef %0) #3 {
  %2 = alloca ptr, align 8
  %3 = alloca ptr, align 8
  store ptr %0, ptr %2, align 8
  call void @llvm.lifetime.start.p0(i64 8, ptr %3) #8
  %4 = load ptr, ptr @CurrentMemoryContext, align 8
  store ptr %4, ptr %3, align 8
  %5 = load ptr, ptr %2, align 8
  store ptr %5, ptr @CurrentMemoryContext, align 8
  %6 = load ptr, ptr %3, align 8
  call void @llvm.lifetime.end.p0(i64 8, ptr %3) #8
  ret ptr %6
}

; Function Attrs: nounwind uwtable
define dso_local void @CompleteCachedPlan(ptr noundef %0, ptr noundef %1, ptr noundef %2, ptr noundef %3, i32 noundef %4, ptr noundef %5, ptr noundef %6, i32 noundef %7, i1 noundef zeroext %8) #0 {
  %10 = alloca ptr, align 8
  %11 = alloca ptr, align 8
  %12 = alloca ptr, align 8
  %13 = alloca ptr, align 8
  %14 = alloca i32, align 4
  %15 = alloca ptr, align 8
  %16 = alloca ptr, align 8
  %17 = alloca i32, align 4
  %18 = alloca i8, align 1
  %19 = alloca ptr, align 8
  %20 = alloca ptr, align 8
  %21 = alloca i32, align 4
  store ptr %0, ptr %10, align 8
  store ptr %1, ptr %11, align 8
  store ptr %2, ptr %12, align 8
  store ptr %3, ptr %13, align 8
  store i32 %4, ptr %14, align 4
  store ptr %5, ptr %15, align 8
  store ptr %6, ptr %16, align 8
  store i32 %7, ptr %17, align 4
  %22 = zext i1 %8 to i8
  store i8 %22, ptr %18, align 1
  call void @llvm.lifetime.start.p0(i64 8, ptr %19) #8
  %23 = load ptr, ptr %10, align 8
  %24 = getelementptr inbounds nuw %struct.CachedPlanSource, ptr %23, i32 0, i32 11
  %25 = load ptr, ptr %24, align 8
  store ptr %25, ptr %19, align 8
  call void @llvm.lifetime.start.p0(i64 8, ptr %20) #8
  %26 = load ptr, ptr @CurrentMemoryContext, align 8
  store ptr %26, ptr %20, align 8
  %27 = load ptr, ptr %10, align 8
  %28 = getelementptr inbounds nuw %struct.CachedPlanSource, ptr %27, i32 0, i32 21
  %29 = load i8, ptr %28, align 8, !range !4, !noundef !5
  %30 = trunc i8 %29 to i1
  br i1 %30, label %31, label %33

31:                                               ; preds = %9
  %32 = load ptr, ptr @CurrentMemoryContext, align 8
  store ptr %32, ptr %12, align 8
  br label %52

33:                                               ; preds = %9
  %34 = load ptr, ptr %12, align 8
  %35 = icmp ne ptr %34, null
  br i1 %35, label %36, label %41

36:                                               ; preds = %33
  %37 = load ptr, ptr %12, align 8
  %38 = load ptr, ptr %19, align 8
  call void @MemoryContextSetParent(ptr noundef %37, ptr noundef %38)
  %39 = load ptr, ptr %12, align 8
  %40 = call ptr @MemoryContextSwitchTo(ptr noundef %39)
  br label %51

41:                                               ; preds = %33
  br label %42

42:                                               ; preds = %41
  br label %43

43:                                               ; preds = %42
  br label %44

44:                                               ; preds = %43
  store i32 1, ptr %21, align 4
  %45 = load ptr, ptr %19, align 8
  %46 = call ptr @AllocSetContextCreateInternal(ptr noundef %45, ptr noundef @.str.1, i64 noundef 0, i64 noundef 1024, i64 noundef 8388608)
  store ptr %46, ptr %12, align 8
  %47 = load ptr, ptr %12, align 8
  %48 = call ptr @MemoryContextSwitchTo(ptr noundef %47)
  %49 = load ptr, ptr %11, align 8
  %50 = call ptr @copyObjectImpl(ptr noundef %49)
  store ptr %50, ptr %11, align 8
  br label %51

51:                                               ; preds = %44, %36
  br label %52

52:                                               ; preds = %51, %31
  %53 = load ptr, ptr %12, align 8
  %54 = load ptr, ptr %10, align 8
  %55 = getelementptr inbounds nuw %struct.CachedPlanSource, ptr %54, i32 0, i32 16
  store ptr %53, ptr %55, align 8
  %56 = load ptr, ptr %11, align 8
  %57 = load ptr, ptr %10, align 8
  %58 = getelementptr inbounds nuw %struct.CachedPlanSource, ptr %57, i32 0, i32 12
  store ptr %56, ptr %58, align 8
  %59 = load ptr, ptr %10, align 8
  %60 = getelementptr inbounds nuw %struct.CachedPlanSource, ptr %59, i32 0, i32 21
  %61 = load i8, ptr %60, align 8, !range !4, !noundef !5
  %62 = trunc i8 %61 to i1
  br i1 %62, label %93, label %63

63:                                               ; preds = %52
  %64 = load ptr, ptr %10, align 8
  %65 = getelementptr inbounds nuw %struct.CachedPlanSource, ptr %64, i32 0, i32 1
  %66 = load ptr, ptr %65, align 8
  %67 = icmp ne ptr %66, null
  br i1 %67, label %68, label %93

68:                                               ; preds = %63
  %69 = load ptr, ptr %10, align 8
  %70 = getelementptr inbounds nuw %struct.CachedPlanSource, ptr %69, i32 0, i32 1
  %71 = load ptr, ptr %70, align 8
  %72 = call zeroext i1 @stmt_requires_parse_analysis(ptr noundef %71)
  br i1 %72, label %73, label %93

73:                                               ; preds = %68
  %74 = load ptr, ptr %11, align 8
  %75 = load ptr, ptr %10, align 8
  %76 = getelementptr inbounds nuw %struct.CachedPlanSource, ptr %75, i32 0, i32 13
  %77 = load ptr, ptr %10, align 8
  %78 = getelementptr inbounds nuw %struct.CachedPlanSource, ptr %77, i32 0, i32 14
  %79 = load ptr, ptr %10, align 8
  %80 = getelementptr inbounds nuw %struct.CachedPlanSource, ptr %79, i32 0, i32 19
  call void @extract_query_dependencies(ptr noundef %74, ptr noundef %76, ptr noundef %78, ptr noundef %80)
  %81 = call i32 @GetUserId()
  %82 = load ptr, ptr %10, align 8
  %83 = getelementptr inbounds nuw %struct.CachedPlanSource, ptr %82, i32 0, i32 17
  store i32 %81, ptr %83, align 8
  %84 = load i8, ptr @row_security, align 1, !range !4, !noundef !5
  %85 = trunc i8 %84 to i1
  %86 = load ptr, ptr %10, align 8
  %87 = getelementptr inbounds nuw %struct.CachedPlanSource, ptr %86, i32 0, i32 18
  %88 = zext i1 %85 to i8
  store i8 %88, ptr %87, align 4
  %89 = load ptr, ptr %12, align 8
  %90 = call ptr @GetSearchPathMatcher(ptr noundef %89)
  %91 = load ptr, ptr %10, align 8
  %92 = getelementptr inbounds nuw %struct.CachedPlanSource, ptr %91, i32 0, i32 15
  store ptr %90, ptr %92, align 8
  br label %93

93:                                               ; preds = %73, %68, %63, %52
  %94 = load ptr, ptr %19, align 8
  %95 = call ptr @MemoryContextSwitchTo(ptr noundef %94)
  %96 = load i32, ptr %14, align 4
  %97 = icmp sgt i32 %96, 0
  br i1 %97, label %98, label %112

98:                                               ; preds = %93
  %99 = load i32, ptr %14, align 4
  %100 = sext i32 %99 to i64
  %101 = mul i64 %100, 4
  %102 = call ptr @palloc(i64 noundef %101)
  %103 = load ptr, ptr %10, align 8
  %104 = getelementptr inbounds nuw %struct.CachedPlanSource, ptr %103, i32 0, i32 4
  store ptr %102, ptr %104, align 8
  %105 = load ptr, ptr %10, align 8
  %106 = getelementptr inbounds nuw %struct.CachedPlanSource, ptr %105, i32 0, i32 4
  %107 = load ptr, ptr %106, align 8
  %108 = load ptr, ptr %13, align 8
  %109 = load i32, ptr %14, align 4
  %110 = sext i32 %109 to i64
  %111 = mul i64 %110, 4
  call void @llvm.memcpy.p0.p0.i64(ptr align 4 %107, ptr align 4 %108, i64 %111, i1 false)
  br label %115

112:                                              ; preds = %93
  %113 = load ptr, ptr %10, align 8
  %114 = getelementptr inbounds nuw %struct.CachedPlanSource, ptr %113, i32 0, i32 4
  store ptr null, ptr %114, align 8
  br label %115

115:                                              ; preds = %112, %98
  %116 = load i32, ptr %14, align 4
  %117 = load ptr, ptr %10, align 8
  %118 = getelementptr inbounds nuw %struct.CachedPlanSource, ptr %117, i32 0, i32 5
  store i32 %116, ptr %118, align 8
  %119 = load ptr, ptr %15, align 8
  %120 = load ptr, ptr %10, align 8
  %121 = getelementptr inbounds nuw %struct.CachedPlanSource, ptr %120, i32 0, i32 6
  store ptr %119, ptr %121, align 8
  %122 = load ptr, ptr %16, align 8
  %123 = load ptr, ptr %10, align 8
  %124 = getelementptr inbounds nuw %struct.CachedPlanSource, ptr %123, i32 0, i32 7
  store ptr %122, ptr %124, align 8
  %125 = load i32, ptr %17, align 4
  %126 = load ptr, ptr %10, align 8
  %127 = getelementptr inbounds nuw %struct.CachedPlanSource, ptr %126, i32 0, i32 8
  store i32 %125, ptr %127, align 8
  %128 = load i8, ptr %18, align 1, !range !4, !noundef !5
  %129 = trunc i8 %128 to i1
  %130 = load ptr, ptr %10, align 8
  %131 = getelementptr inbounds nuw %struct.CachedPlanSource, ptr %130, i32 0, i32 9
  %132 = zext i1 %129 to i8
  store i8 %132, ptr %131, align 4
  %133 = load ptr, ptr %11, align 8
  %134 = call ptr @PlanCacheComputeResultDesc(ptr noundef %133)
  %135 = load ptr, ptr %10, align 8
  %136 = getelementptr inbounds nuw %struct.CachedPlanSource, ptr %135, i32 0, i32 10
  store ptr %134, ptr %136, align 8
  %137 = load ptr, ptr %20, align 8
  %138 = call ptr @MemoryContextSwitchTo(ptr noundef %137)
  %139 = load ptr, ptr %10, align 8
  %140 = getelementptr inbounds nuw %struct.CachedPlanSource, ptr %139, i32 0, i32 22
  store i8 1, ptr %140, align 1
  %141 = load ptr, ptr %10, align 8
  %142 = getelementptr inbounds nuw %struct.CachedPlanSource, ptr %141, i32 0, i32 24
  store i8 1, ptr %142, align 1
  call void @llvm.lifetime.end.p0(i64 8, ptr %20) #8
  call void @llvm.lifetime.end.p0(i64 8, ptr %19) #8
  ret void
}