; Function Attrs: nounwind uwtable
define dso_local void @CompleteCachedPlan(ptr noundef initializes((88, 96), (120, 128)) %0, ptr noundef %1, ptr noundef %2, ptr noundef readonly captures(none) %3, i32 noundef %4, ptr noundef %5, ptr noundef %6, i32 noundef %7, i1 noundef zeroext %8) local_unnamed_addr #0 {
  %10 = getelementptr inbounds nuw i8, ptr %0, i64 80
  %11 = load ptr, ptr %10, align 8
  %12 = load ptr, ptr @CurrentMemoryContext, align 8
  %13 = getelementptr inbounds nuw i8, ptr %0, i64 144
  %14 = load i8, ptr %13, align 8, !range !4, !noundef !5
  %15 = trunc nuw i8 %14 to i1
  br i1 %15, label %21, label %16

16:                                               ; preds = %9
  %.not = icmp eq ptr %2, null
  br i1 %.not, label %18, label %17

17:                                               ; preds = %16
  tail call void @MemoryContextSetParent(ptr noundef nonnull %2, ptr noundef %11) #9
  store ptr %2, ptr @CurrentMemoryContext, align 8
  br label %21

18:                                               ; preds = %16
  %19 = tail call ptr @AllocSetContextCreateInternal(ptr noundef %11, ptr noundef nonnull @.str.1, i64 noundef 0, i64 noundef 1024, i64 noundef 8388608) #9
  store ptr %19, ptr @CurrentMemoryContext, align 8
  %20 = tail call ptr @copyObjectImpl(ptr noundef %1) #9
  br label %21

21:                                               ; preds = %9, %17, %18
  %.046 = phi ptr [ %2, %17 ], [ %19, %18 ], [ %12, %9 ]
  %.0 = phi ptr [ %1, %17 ], [ %20, %18 ], [ %1, %9 ]
  %22 = getelementptr inbounds nuw i8, ptr %0, i64 120
  store ptr %.046, ptr %22, align 8
  %23 = getelementptr inbounds nuw i8, ptr %0, i64 88
  store ptr %.0, ptr %23, align 8
  %24 = load i8, ptr %13, align 8, !range !4, !noundef !5
  %25 = trunc nuw i8 %24 to i1
  br i1 %25, label %41, label %26

26:                                               ; preds = %21
  %27 = getelementptr inbounds nuw i8, ptr %0, i64 8
  %28 = load ptr, ptr %27, align 8
  %.not50 = icmp eq ptr %28, null
  br i1 %.not50, label %41, label %29

29:                                               ; preds = %26
  %30 = tail call zeroext i1 @stmt_requires_parse_analysis(ptr noundef nonnull %28) #9
  br i1 %30, label %31, label %41

31:                                               ; preds = %29
  %32 = getelementptr inbounds nuw i8, ptr %0, i64 96
  %33 = getelementptr inbounds nuw i8, ptr %0, i64 104
  %34 = getelementptr inbounds nuw i8, ptr %0, i64 133
  tail call void @extract_query_dependencies(ptr noundef %.0, ptr noundef nonnull %32, ptr noundef nonnull %33, ptr noundef nonnull %34) #9
  %35 = tail call i32 @GetUserId() #9
  %36 = getelementptr inbounds nuw i8, ptr %0, i64 128
  store i32 %35, ptr %36, align 8
  %37 = load i8, ptr @row_security, align 1, !range !4, !noundef !5
  %38 = getelementptr inbounds nuw i8, ptr %0, i64 132
  store i8 %37, ptr %38, align 4
  %39 = tail call ptr @GetSearchPathMatcher(ptr noundef %.046) #9
  %40 = getelementptr inbounds nuw i8, ptr %0, i64 112
  store ptr %39, ptr %40, align 8
  br label %41

41:                                               ; preds = %31, %29, %26, %21
  store ptr %11, ptr @CurrentMemoryContext, align 8
  %42 = icmp sgt i32 %4, 0
  br i1 %42, label %43, label %48

43:                                               ; preds = %41
  %44 = zext nneg i32 %4 to i64
  %45 = shl nuw nsw i64 %44, 2
  %46 = tail call ptr @palloc(i64 noundef %45) #9
  %47 = getelementptr inbounds nuw i8, ptr %0, i64 32
  store ptr %46, ptr %47, align 8
  tail call void @llvm.memcpy.p0.p0.i64(ptr align 4 %46, ptr align 4 %3, i64 %45, i1 false)
  br label %50

48:                                               ; preds = %41
  %49 = getelementptr inbounds nuw i8, ptr %0, i64 32
  store ptr null, ptr %49, align 8
  br label %50

50:                                               ; preds = %48, %43
  %51 = zext i1 %8 to i8
  %52 = getelementptr inbounds nuw i8, ptr %0, i64 40
  store i32 %4, ptr %52, align 8
  %53 = getelementptr inbounds nuw i8, ptr %0, i64 48
  store ptr %5, ptr %53, align 8
  %54 = getelementptr inbounds nuw i8, ptr %0, i64 56
  store ptr %6, ptr %54, align 8
  %55 = getelementptr inbounds nuw i8, ptr %0, i64 64
  store i32 %7, ptr %55, align 8
  %56 = getelementptr inbounds nuw i8, ptr %0, i64 68
  store i8 %51, ptr %56, align 4
  %57 = tail call i32 @ChoosePortalStrategy(ptr noundef %.0) #9
  switch i32 %57, label %PlanCacheComputeResultDesc.exit [
    i32 0, label %58
    i32 2, label %58
    i32 1, label %.lr.ph.i.i
    i32 3, label %81
  ]

58:                                               ; preds = %50, %50
  %59 = getelementptr i8, ptr %.0, i64 16
  %.val.i = load ptr, ptr %59, align 8
  %60 = load ptr, ptr %.val.i, align 8
  %61 = getelementptr inbounds nuw i8, ptr %60, i64 112
  %62 = load ptr, ptr %61, align 8
  %63 = tail call ptr @ExecCleanTypeFromTL(ptr noundef %62) #9
  br label %PlanCacheComputeResultDesc.exit

.lr.ph.i.i:                                       ; preds = %50
  %.not.i.i = icmp ne ptr %.0, null
  tail call void @llvm.assume(i1 %.not.i.i)
  %64 = getelementptr inbounds nuw i8, ptr %.0, i64 4
  %65 = load i32, ptr %64, align 4
  %66 = icmp sgt i32 %65, 0
  tail call void @llvm.assume(i1 %66)
  %67 = getelementptr inbounds nuw i8, ptr %.0, i64 16
  %68 = load ptr, ptr %67, align 8
  %wide.trip.count.i.i = zext nneg i32 %65 to i64
  %69 = load ptr, ptr %68, align 8
  %70 = getelementptr inbounds nuw i8, ptr %69, i64 24
  %71 = load i8, ptr %70, align 8, !range !4, !noundef !5
  %72 = trunc nuw i8 %71 to i1
  br i1 %72, label %QueryListGetPrimaryStmt.exit.i, label %.lr.ph.i

.lr.ph.i:                                         ; preds = %.lr.ph.i.i, %.lr.ph.i
  %indvars.iv.i9.i = phi i64 [ %indvars.iv.next.i.i, %.lr.ph.i ], [ 0, %.lr.ph.i.i ]
  %indvars.iv.next.i.i = add nuw nsw i64 %indvars.iv.i9.i, 1
  %exitcond.not.i.i = icmp ne i64 %indvars.iv.next.i.i, %wide.trip.count.i.i
  tail call void @llvm.assume(i1 %exitcond.not.i.i)
  %73 = getelementptr inbounds nuw %union.ListCell, ptr %68, i64 %indvars.iv.next.i.i
  %74 = load ptr, ptr %73, align 8
  %75 = getelementptr inbounds nuw i8, ptr %74, i64 24
  %76 = load i8, ptr %75, align 8, !range !4, !noundef !5
  %77 = trunc nuw i8 %76 to i1
  br i1 %77, label %QueryListGetPrimaryStmt.exit.i, label %.lr.ph.i

QueryListGetPrimaryStmt.exit.i:                   ; preds = %.lr.ph.i, %.lr.ph.i.i
  %.lcssa.i = phi ptr [ %69, %.lr.ph.i.i ], [ %74, %.lr.ph.i ]
  %78 = getelementptr inbounds nuw i8, ptr %.lcssa.i, i64 152
  %79 = load ptr, ptr %78, align 8
  %80 = tail call ptr @ExecCleanTypeFromTL(ptr noundef %79) #9
  br label %PlanCacheComputeResultDesc.exit

81:                                               ; preds = %50
  %82 = getelementptr i8, ptr %.0, i64 16
  %.val8.i = load ptr, ptr %82, align 8
  %83 = load ptr, ptr %.val8.i, align 8
  %84 = getelementptr inbounds nuw i8, ptr %83, i64 32
  %85 = load ptr, ptr %84, align 8
  %86 = tail call ptr @UtilityTupleDescriptor(ptr noundef %85) #9
  br label %PlanCacheComputeResultDesc.exit

PlanCacheComputeResultDesc.exit:                  ; preds = %50, %58, %QueryListGetPrimaryStmt.exit.i, %81
  %.0.i = phi ptr [ %86, %81 ], [ %80, %QueryListGetPrimaryStmt.exit.i ], [ %63, %58 ], [ null, %50 ]
  %87 = getelementptr inbounds nuw i8, ptr %0, i64 72
  store ptr %.0.i, ptr %87, align 8
  store ptr %12, ptr @CurrentMemoryContext, align 8
  %88 = getelementptr inbounds nuw i8, ptr %0, i64 145
  store i8 1, ptr %88, align 1
  %89 = getelementptr inbounds nuw i8, ptr %0, i64 147
  store i8 1, ptr %89, align 1
  ret void
}